target datalayout = "e-m:e-p270:32:32-p271:32:32-p272:64:64-i64:64-i128:128-f80:128-n8:16:32:64-S128"
target triple = "x86_64-pc-linux-gnu"

%struct.mi_page_s = type { i32, i32, i8, i16, i16, %union.mi_page_flags_s, i8, ptr, ptr, i16, i8, i8, i64, ptr, i64, i64, ptr, ptr, [1 x ptr] }
%union.mi_page_flags_s = type { i8 }
%struct.mi_block_s = type { i64 }

; Function Attrs: inlinehint nounwind uwtable
define internal void @mi_block_set_nextx(ptr noundef %0, ptr noundef %1, ptr noundef %2, ptr noundef %3) #1 {
  %5 = alloca ptr, align 8
  %6 = alloca ptr, align 8
  %7 = alloca ptr, align 8
  %8 = alloca ptr, align 8
  store ptr %0, ptr %5, align 8, !tbaa !57
  store ptr %1, ptr %6, align 8, !tbaa !42
  store ptr %2, ptr %7, align 8, !tbaa !42
  store ptr %3, ptr %8, align 8, !tbaa !58
  %9 = load ptr, ptr %7, align 8, !tbaa !42
  %10 = ptrtoint ptr %9 to i64
  %11 = load ptr, ptr %6, align 8, !tbaa !42
  %12 = getelementptr inbounds nuw %struct.mi_block_s, ptr %11, i32 0, i32 0
  store i64 %10, ptr %12, align 8, !tbaa !60
  ret void
}

; Function Attrs: inlinehint nounwind uwtable
define internal void @mi_block_set_next(ptr noundef %0, ptr noundef %1, ptr noundef %2) #1 {
  %4 = alloca ptr, align 8
  %5 = alloca ptr, align 8
  %6 = alloca ptr, align 8
  store ptr %0, ptr %4, align 8, !tbaa !17
  store ptr %1, ptr %5, align 8, !tbaa !42
  store ptr %2, ptr %6, align 8, !tbaa !42
  %7 = load ptr, ptr %4, align 8, !tbaa !17
  %8 = load ptr, ptr %5, align 8, !tbaa !42
  %9 = load ptr, ptr %6, align 8, !tbaa !42
  call void @mi_block_set_nextx(ptr noundef %7, ptr noundef %8, ptr noundef %9, ptr noundef null) #10
  ret void
}

; Function Attrs: inlinehint nounwind uwtable
define internal ptr @mi_page_block_at(ptr noundef %0, ptr noundef %1, i64 noundef %2, i64 noundef %3) #1 {
  %5 = alloca ptr, align 8
  %6 = alloca ptr, align 8
  %7 = alloca i64, align 8
  %8 = alloca i64, align 8
  store ptr %0, ptr %5, align 8, !tbaa !17
  store ptr %1, ptr %6, align 8, !tbaa !57
  store i64 %2, ptr %7, align 8, !tbaa !3
  store i64 %3, ptr %8, align 8, !tbaa !3
  %9 = load ptr, ptr %6, align 8, !tbaa !57
  %10 = load i64, ptr %8, align 8, !tbaa !3
  %11 = load i64, ptr %7, align 8, !tbaa !3
  %12 = mul i64 %10, %11
  %13 = getelementptr inbounds nuw i8, ptr %9, i64 %12
  ret ptr %13
}

; Function Attrs: inlinehint nounwind uwtable
define internal ptr @mi_page_start(ptr noundef %0) #1 {
  %2 = alloca ptr, align 8
  store ptr %0, ptr %2, align 8, !tbaa !17
  %3 = load ptr, ptr %2, align 8, !tbaa !17
  %4 = getelementptr inbounds nuw %struct.mi_page_s, ptr %3, i32 0, i32 13
  %5 = load ptr, ptr %4, align 8, !tbaa !83
  ret ptr %5
}

; Function Attrs: noinline nounwind uwtable
define internal void @mi_page_free_list_extend(ptr noundef %0, i64 noundef %1, i64 noundef %2, ptr noundef %3) #7 {
  %5 = alloca ptr, align 8
  %6 = alloca i64, align 8
  %7 = alloca i64, align 8
  %8 = alloca ptr, align 8
  %9 = alloca ptr, align 8
  %10 = alloca ptr, align 8
  %11 = alloca ptr, align 8
  %12 = alloca ptr, align 8
  %13 = alloca ptr, align 8
  store ptr %0, ptr %5, align 8, !tbaa !17
  store i64 %1, ptr %6, align 8, !tbaa !3
  store i64 %2, ptr %7, align 8, !tbaa !3
  store ptr %3, ptr %8, align 8, !tbaa !86
  call void @llvm.lifetime.start.p0(i64 8, ptr %9) #6
  %14 = load ptr, ptr %5, align 8, !tbaa !17
  %15 = call ptr @mi_page_start(ptr noundef %14) #10
  store ptr %15, ptr %9, align 8, !tbaa !57
  call void @llvm.lifetime.start.p0(i64 8, ptr %10) #6
  %16 = load ptr, ptr %5, align 8, !tbaa !17
  %17 = load ptr, ptr %9, align 8, !tbaa !57
  %18 = load i64, ptr %6, align 8, !tbaa !3
  %19 = load ptr, ptr %5, align 8, !tbaa !17
  %20 = getelementptr inbounds nuw %struct.mi_page_s, ptr %19, i32 0, i32 3
  %21 = load i16, ptr %20, align 2, !tbaa !45
  %22 = zext i16 %21 to i64
  %23 = call ptr @mi_page_block_at(ptr noundef %16, ptr noundef %17, i64 noundef %18, i64 noundef %22) #10
  store ptr %23, ptr %10, align 8, !tbaa !42
  call void @llvm.lifetime.start.p0(i64 8, ptr %11) #6
  %24 = load ptr, ptr %5, align 8, !tbaa !17
  %25 = load ptr, ptr %9, align 8, !tbaa !57
  %26 = load i64, ptr %6, align 8, !tbaa !3
  %27 = load ptr, ptr %5, align 8, !tbaa !17
  %28 = getelementptr inbounds nuw %struct.mi_page_s, ptr %27, i32 0, i32 3
  %29 = load i16, ptr %28, align 2, !tbaa !45
  %30 = zext i16 %29 to i64
  %31 = load i64, ptr %7, align 8, !tbaa !3
  %32 = add i64 %30, %31
  %33 = sub i64 %32, 1
  %34 = call ptr @mi_page_block_at(ptr noundef %24, ptr noundef %25, i64 noundef %26, i64 noundef %33) #10
  store ptr %34, ptr %11, align 8, !tbaa !42
  call void @llvm.lifetime.start.p0(i64 8, ptr %12) #6
  %35 = load ptr, ptr %10, align 8, !tbaa !42
  store ptr %35, ptr %12, align 8, !tbaa !42
  br label %36

36:                                               ; preds = %40, %4
  %37 = load ptr, ptr %12, align 8, !tbaa !42
  %38 = load ptr, ptr %11, align 8, !tbaa !42
  %39 = icmp ule ptr %37, %38
  br i1 %39, label %40, label %48

40:                                               ; preds = %36
  call void @llvm.lifetime.start.p0(i64 8, ptr %13) #6
  %41 = load ptr, ptr %12, align 8, !tbaa !42
  %42 = load i64, ptr %6, align 8, !tbaa !3
  %43 = getelementptr inbounds nuw i8, ptr %41, i64 %42
  store ptr %43, ptr %13, align 8, !tbaa !42
  %44 = load ptr, ptr %5, align 8, !tbaa !17
  %45 = load ptr, ptr %12, align 8, !tbaa !42
  %46 = load ptr, ptr %13, align 8, !tbaa !42
  call void @mi_block_set_next(ptr noundef %44, ptr noundef %45, ptr noundef %46) #10
  %47 = load ptr, ptr %13, align 8, !tbaa !42
  store ptr %47, ptr %12, align 8, !tbaa !42
  call void @llvm.lifetime.end.p0(i64 8, ptr %13) #6
  br label %36, !llvm.loop !87

48:                                               ; preds = %36
  %49 = load ptr, ptr %5, align 8, !tbaa !17
  %50 = load ptr, ptr %11, align 8, !tbaa !42
  %51 = load ptr, ptr %5, align 8, !tbaa !17
  %52 = getelementptr inbounds nuw %struct.mi_page_s, ptr %51, i32 0, i32 7
  %53 = load ptr, ptr %52, align 8, !tbaa !41
  call void @mi_block_set_next(ptr noundef %49, ptr noundef %50, ptr noundef %53) #10
  %54 = load ptr, ptr %10, align 8, !tbaa !42
  %55 = load ptr, ptr %5, align 8, !tbaa !17
  %56 = getelementptr inbounds nuw %struct.mi_page_s, ptr %55, i32 0, i32 7
  store ptr %54, ptr %56, align 8, !tbaa !41
  call void @llvm.lifetime.end.p0(i64 8, ptr %12) #6
  call void @llvm.lifetime.end.p0(i64 8, ptr %11) #6
  call void @llvm.lifetime.end.p0(i64 8, ptr %10) #6
  call void @llvm.lifetime.end.p0(i64 8, ptr %9) #6
  ret void
}