; Function Attrs: nofree noinline norecurse nosync nounwind memory(write, argmem: readwrite, inaccessiblemem: none) uwtable
define internal fastcc void @mi_page_free_list_extend(ptr noundef nonnull captures(none) %0, i64 noundef %1, i64 noundef range(i64 0, 4097) %2) unnamed_addr #9 {
  %4 = getelementptr i8, ptr %0, i64 48
  %.val = load ptr, ptr %4, align 8, !tbaa !71
  %5 = getelementptr inbounds nuw i8, ptr %0, i64 10
  %6 = load i16, ptr %5, align 2, !tbaa !30
  %7 = zext i16 %6 to i64
  %8 = mul i64 %1, %7
  %9 = getelementptr inbounds nuw i8, ptr %.val, i64 %8
  %10 = add nsw i64 %2, -1
  %11 = add nsw i64 %10, %7
  %12 = mul i64 %11, %1
  %13 = getelementptr inbounds nuw i8, ptr %.val, i64 %12
  %.not1 = icmp samesign ugt i64 %8, %12
  br i1 %.not1, label %._crit_edge, label %.lr.ph

.lr.ph:                                           ; preds = %3, %.lr.ph
  %.02 = phi ptr [ %14, %.lr.ph ], [ %9, %3 ]
  %14 = getelementptr inbounds nuw i8, ptr %.02, i64 %1
  %15 = ptrtoint ptr %14 to i64
  store i64 %15, ptr %.02, align 8, !tbaa !31
  %.not = icmp ugt ptr %14, %13
  br i1 %.not, label %._crit_edge, label %.lr.ph, !llvm.loop !74

._crit_edge:                                      ; preds = %.lr.ph, %3
  %16 = getelementptr inbounds nuw i8, ptr %0, i64 16
  %17 = load ptr, ptr %16, align 8, !tbaa !36
  %18 = ptrtoint ptr %17 to i64
  store i64 %18, ptr %13, align 8, !tbaa !31
  store ptr %9, ptr %16, align 8, !tbaa !36
  ret void
}